target datalayout = "e-m:e-p270:32:32-p271:32:32-p272:64:64-i64:64-i128:128-f80:128-n8:16:32:64-S128"
target triple = "x86_64-pc-linux-gnu"

%struct.b2TreeNode = type { %struct.b2AABB, i64, %union.anon, i32, %union.anon.0, i16, i16 }
%struct.b2AABB = type { %struct.b2Vec2, %struct.b2Vec2 }
%struct.b2Vec2 = type { float, float }
%union.anon = type { i32 }
%union.anon.0 = type { i32 }
%struct.b2DynamicTree = type { ptr, i32, i32, i32, i32, i32, ptr, ptr, ptr, ptr, i32 }

; Function Attrs: inlinehint nounwind uwtable
define internal zeroext i1 @b2EnlargeAABB(ptr noundef %0, <2 x float> %1, <2 x float> %2) #6 {
  %4 = alloca %struct.b2AABB, align 4
  %5 = alloca ptr, align 8
  %6 = alloca i8, align 1
  %7 = getelementptr inbounds nuw { <2 x float>, <2 x float> }, ptr %4, i32 0, i32 0
  store <2 x float> %1, ptr %7, align 4
  %8 = getelementptr inbounds nuw { <2 x float>, <2 x float> }, ptr %4, i32 0, i32 1
  store <2 x float> %2, ptr %8, align 4
  store ptr %0, ptr %5, align 8, !tbaa !54
  call void @llvm.lifetime.start.p0(i64 1, ptr %6) #9
  store i8 0, ptr %6, align 1, !tbaa !42
  %9 = getelementptr inbounds nuw %struct.b2AABB, ptr %4, i32 0, i32 0
  %10 = getelementptr inbounds nuw %struct.b2Vec2, ptr %9, i32 0, i32 0
  %11 = load float, ptr %10, align 4, !tbaa !55
  %12 = load ptr, ptr %5, align 8, !tbaa !54
  %13 = getelementptr inbounds nuw %struct.b2AABB, ptr %12, i32 0, i32 0
  %14 = getelementptr inbounds nuw %struct.b2Vec2, ptr %13, i32 0, i32 0
  %15 = load float, ptr %14, align 4, !tbaa !55
  %16 = fcmp olt float %11, %15
  br i1 %16, label %17, label %24

17:                                               ; preds = %3
  %18 = getelementptr inbounds nuw %struct.b2AABB, ptr %4, i32 0, i32 0
  %19 = getelementptr inbounds nuw %struct.b2Vec2, ptr %18, i32 0, i32 0
  %20 = load float, ptr %19, align 4, !tbaa !55
  %21 = load ptr, ptr %5, align 8, !tbaa !54
  %22 = getelementptr inbounds nuw %struct.b2AABB, ptr %21, i32 0, i32 0
  %23 = getelementptr inbounds nuw %struct.b2Vec2, ptr %22, i32 0, i32 0
  store float %20, ptr %23, align 4, !tbaa !55
  store i8 1, ptr %6, align 1, !tbaa !42
  br label %24

24:                                               ; preds = %17, %3
  %25 = getelementptr inbounds nuw %struct.b2AABB, ptr %4, i32 0, i32 0
  %26 = getelementptr inbounds nuw %struct.b2Vec2, ptr %25, i32 0, i32 1
  %27 = load float, ptr %26, align 4, !tbaa !56
  %28 = load ptr, ptr %5, align 8, !tbaa !54
  %29 = getelementptr inbounds nuw %struct.b2AABB, ptr %28, i32 0, i32 0
  %30 = getelementptr inbounds nuw %struct.b2Vec2, ptr %29, i32 0, i32 1
  %31 = load float, ptr %30, align 4, !tbaa !56
  %32 = fcmp olt float %27, %31
  br i1 %32, label %33, label %40

33:                                               ; preds = %24
  %34 = getelementptr inbounds nuw %struct.b2AABB, ptr %4, i32 0, i32 0
  %35 = getelementptr inbounds nuw %struct.b2Vec2, ptr %34, i32 0, i32 1
  %36 = load float, ptr %35, align 4, !tbaa !56
  %37 = load ptr, ptr %5, align 8, !tbaa !54
  %38 = getelementptr inbounds nuw %struct.b2AABB, ptr %37, i32 0, i32 0
  %39 = getelementptr inbounds nuw %struct.b2Vec2, ptr %38, i32 0, i32 1
  store float %36, ptr %39, align 4, !tbaa !56
  store i8 1, ptr %6, align 1, !tbaa !42
  br label %40

40:                                               ; preds = %33, %24
  %41 = load ptr, ptr %5, align 8, !tbaa !54
  %42 = getelementptr inbounds nuw %struct.b2AABB, ptr %41, i32 0, i32 1
  %43 = getelementptr inbounds nuw %struct.b2Vec2, ptr %42, i32 0, i32 0
  %44 = load float, ptr %43, align 4, !tbaa !57
  %45 = getelementptr inbounds nuw %struct.b2AABB, ptr %4, i32 0, i32 1
  %46 = getelementptr inbounds nuw %struct.b2Vec2, ptr %45, i32 0, i32 0
  %47 = load float, ptr %46, align 4, !tbaa !57
  %48 = fcmp olt float %44, %47
  br i1 %48, label %49, label %56

49:                                               ; preds = %40
  %50 = getelementptr inbounds nuw %struct.b2AABB, ptr %4, i32 0, i32 1
  %51 = getelementptr inbounds nuw %struct.b2Vec2, ptr %50, i32 0, i32 0
  %52 = load float, ptr %51, align 4, !tbaa !57
  %53 = load ptr, ptr %5, align 8, !tbaa !54
  %54 = getelementptr inbounds nuw %struct.b2AABB, ptr %53, i32 0, i32 1
  %55 = getelementptr inbounds nuw %struct.b2Vec2, ptr %54, i32 0, i32 0
  store float %52, ptr %55, align 4, !tbaa !57
  store i8 1, ptr %6, align 1, !tbaa !42
  br label %56

56:                                               ; preds = %49, %40
  %57 = load ptr, ptr %5, align 8, !tbaa !54
  %58 = getelementptr inbounds nuw %struct.b2AABB, ptr %57, i32 0, i32 1
  %59 = getelementptr inbounds nuw %struct.b2Vec2, ptr %58, i32 0, i32 1
  %60 = load float, ptr %59, align 4, !tbaa !58
  %61 = getelementptr inbounds nuw %struct.b2AABB, ptr %4, i32 0, i32 1
  %62 = getelementptr inbounds nuw %struct.b2Vec2, ptr %61, i32 0, i32 1
  %63 = load float, ptr %62, align 4, !tbaa !58
  %64 = fcmp olt float %60, %63
  br i1 %64, label %65, label %72

65:                                               ; preds = %56
  %66 = getelementptr inbounds nuw %struct.b2AABB, ptr %4, i32 0, i32 1
  %67 = getelementptr inbounds nuw %struct.b2Vec2, ptr %66, i32 0, i32 1
  %68 = load float, ptr %67, align 4, !tbaa !58
  %69 = load ptr, ptr %5, align 8, !tbaa !54
  %70 = getelementptr inbounds nuw %struct.b2AABB, ptr %69, i32 0, i32 1
  %71 = getelementptr inbounds nuw %struct.b2Vec2, ptr %70, i32 0, i32 1
  store float %68, ptr %71, align 4, !tbaa !58
  store i8 1, ptr %6, align 1, !tbaa !42
  br label %72

72:                                               ; preds = %65, %56
  %73 = load i8, ptr %6, align 1, !tbaa !42, !range !44, !noundef !45
  %74 = trunc i8 %73 to i1
  call void @llvm.lifetime.end.p0(i64 1, ptr %6) #9
  ret i1 %74
}

; Function Attrs: nounwind uwtable
define void @b2DynamicTree_EnlargeProxy(ptr noundef %0, i32 noundef %1, <2 x float> %2, <2 x float> %3) #4 {
  %5 = alloca %struct.b2AABB, align 4
  %6 = alloca ptr, align 8
  %7 = alloca i32, align 4
  %8 = alloca ptr, align 8
  %9 = alloca i32, align 4
  %10 = alloca i8, align 1
  %11 = alloca i32, align 4
  %12 = getelementptr inbounds nuw { <2 x float>, <2 x float> }, ptr %5, i32 0, i32 0
  store <2 x float> %2, ptr %12, align 4
  %13 = getelementptr inbounds nuw { <2 x float>, <2 x float> }, ptr %5, i32 0, i32 1
  store <2 x float> %3, ptr %13, align 4
  store ptr %0, ptr %6, align 8, !tbaa !27
  store i32 %1, ptr %7, align 4, !tbaa !16
  call void @llvm.lifetime.start.p0(i64 8, ptr %8) #9
  %14 = load ptr, ptr %6, align 8, !tbaa !27
  %15 = getelementptr inbounds nuw %struct.b2DynamicTree, ptr %14, i32 0, i32 0
  %16 = load ptr, ptr %15, align 8, !tbaa !15
  store ptr %16, ptr %8, align 8, !tbaa !31
  %17 = load ptr, ptr %8, align 8, !tbaa !31
  %18 = load i32, ptr %7, align 4, !tbaa !16
  %19 = sext i32 %18 to i64
  %20 = getelementptr inbounds %struct.b2TreeNode, ptr %17, i64 %19
  %21 = getelementptr inbounds nuw %struct.b2TreeNode, ptr %20, i32 0, i32 0
  call void @llvm.memcpy.p0.p0.i64(ptr align 8 %21, ptr align 4 %5, i64 16, i1 false), !tbaa.struct !32
  call void @llvm.lifetime.start.p0(i64 4, ptr %9) #9
  %22 = load ptr, ptr %8, align 8, !tbaa !31
  %23 = load i32, ptr %7, align 4, !tbaa !16
  %24 = sext i32 %23 to i64
  %25 = getelementptr inbounds %struct.b2TreeNode, ptr %22, i64 %24
  %26 = getelementptr inbounds nuw %struct.b2TreeNode, ptr %25, i32 0, i32 2
  %27 = load i32, ptr %26, align 8, !tbaa !17
  store i32 %27, ptr %9, align 4, !tbaa !16
  br label %28

28:                                               ; preds = %66, %4
  %29 = load i32, ptr %9, align 4, !tbaa !16
  %30 = icmp ne i32 %29, -1
  br i1 %30, label %31, label %67

31:                                               ; preds = %28
  call void @llvm.lifetime.start.p0(i64 1, ptr %10) #9
  %32 = load ptr, ptr %8, align 8, !tbaa !31
  %33 = load i32, ptr %9, align 4, !tbaa !16
  %34 = sext i32 %33 to i64
  %35 = getelementptr inbounds %struct.b2TreeNode, ptr %32, i64 %34
  %36 = getelementptr inbounds nuw %struct.b2TreeNode, ptr %35, i32 0, i32 0
  %37 = getelementptr inbounds nuw { <2 x float>, <2 x float> }, ptr %5, i32 0, i32 0
  %38 = load <2 x float>, ptr %37, align 4
  %39 = getelementptr inbounds nuw { <2 x float>, <2 x float> }, ptr %5, i32 0, i32 1
  %40 = load <2 x float>, ptr %39, align 4
  %41 = call zeroext i1 @b2EnlargeAABB(ptr noundef %36, <2 x float> %38, <2 x float> %40)
  %42 = zext i1 %41 to i8
  store i8 %42, ptr %10, align 1, !tbaa !42
  %43 = load ptr, ptr %8, align 8, !tbaa !31
  %44 = load i32, ptr %9, align 4, !tbaa !16
  %45 = sext i32 %44 to i64
  %46 = getelementptr inbounds %struct.b2TreeNode, ptr %43, i64 %45
  %47 = getelementptr inbounds nuw %struct.b2TreeNode, ptr %46, i32 0, i32 6
  %48 = load i16, ptr %47, align 2, !tbaa !41
  %49 = zext i16 %48 to i32
  %50 = or i32 %49, 2
  %51 = trunc i32 %50 to i16
  store i16 %51, ptr %47, align 2, !tbaa !41
  %52 = load ptr, ptr %8, align 8, !tbaa !31
  %53 = load i32, ptr %9, align 4, !tbaa !16
  %54 = sext i32 %53 to i64
  %55 = getelementptr inbounds %struct.b2TreeNode, ptr %52, i64 %54
  %56 = getelementptr inbounds nuw %struct.b2TreeNode, ptr %55, i32 0, i32 2
  %57 = load i32, ptr %56, align 8, !tbaa !17
  store i32 %57, ptr %9, align 4, !tbaa !16
  %58 = load i8, ptr %10, align 1, !tbaa !42, !range !44, !noundef !45
  %59 = trunc i8 %58 to i1
  %60 = zext i1 %59 to i32
  %61 = icmp eq i32 %60, 0
  br i1 %61, label %62, label %63

62:                                               ; preds = %31
  store i32 3, ptr %11, align 4
  br label %64

63:                                               ; preds = %31
  store i32 0, ptr %11, align 4
  br label %64

64:                                               ; preds = %63, %62
  call void @llvm.lifetime.end.p0(i64 1, ptr %10) #9
  %65 = load i32, ptr %11, align 4
  switch i32 %65, label %99 [
    i32 0, label %66
    i32 3, label %67
  ]

66:                                               ; preds = %64
  br label %28, !llvm.loop !52

67:                                               ; preds = %64, %28
  br label %68

68:                                               ; preds = %82, %67
  %69 = load i32, ptr %9, align 4, !tbaa !16
  %70 = icmp ne i32 %69, -1
  br i1 %70, label %71, label %98

71:                                               ; preds = %68
  %72 = load ptr, ptr %8, align 8, !tbaa !31
  %73 = load i32, ptr %9, align 4, !tbaa !16
  %74 = sext i32 %73 to i64
  %75 = getelementptr inbounds %struct.b2TreeNode, ptr %72, i64 %74
  %76 = getelementptr inbounds nuw %struct.b2TreeNode, ptr %75, i32 0, i32 6
  %77 = load i16, ptr %76, align 2, !tbaa !41
  %78 = zext i16 %77 to i32
  %79 = and i32 %78, 2
  %80 = icmp ne i32 %79, 0
  br i1 %80, label %81, label %82

81:                                               ; preds = %71
  br label %98

82:                                               ; preds = %71
  %83 = load ptr, ptr %8, align 8, !tbaa !31
  %84 = load i32, ptr %9, align 4, !tbaa !16
  %85 = sext i32 %84 to i64
  %86 = getelementptr inbounds %struct.b2TreeNode, ptr %83, i64 %85
  %87 = getelementptr inbounds nuw %struct.b2TreeNode, ptr %86, i32 0, i32 6
  %88 = load i16, ptr %87, align 2, !tbaa !41
  %89 = zext i16 %88 to i32
  %90 = or i32 %89, 2
  %91 = trunc i32 %90 to i16
  store i16 %91, ptr %87, align 2, !tbaa !41
  %92 = load ptr, ptr %8, align 8, !tbaa !31
  %93 = load i32, ptr %9, align 4, !tbaa !16
  %94 = sext i32 %93 to i64
  %95 = getelementptr inbounds %struct.b2TreeNode, ptr %92, i64 %94
  %96 = getelementptr inbounds nuw %struct.b2TreeNode, ptr %95, i32 0, i32 2
  %97 = load i32, ptr %96, align 8, !tbaa !17
  store i32 %97, ptr %9, align 4, !tbaa !16
  br label %68, !llvm.loop !53

98:                                               ; preds = %81, %68
  call void @llvm.lifetime.end.p0(i64 4, ptr %9) #9
  call void @llvm.lifetime.end.p0(i64 8, ptr %8) #9
  ret void

99:                                               ; preds = %64
  unreachable
}