; Function Attrs: nofree norecurse nosync nounwind memory(readwrite, inaccessiblemem: none) uwtable
define void @b2DynamicTree_EnlargeProxy(ptr noundef readonly captures(none) %0, i32 noundef %1, <2 x float> %2, <2 x float> %3) local_unnamed_addr #6 {
  %5 = load ptr, ptr %0, align 8, !tbaa !15
  %6 = sext i32 %1 to i64
  %7 = getelementptr inbounds %struct.b2TreeNode, ptr %5, i64 %6
  store <2 x float> %2, ptr %7, align 8
  %.sroa.3.0..sroa_idx = getelementptr inbounds nuw i8, ptr %7, i64 8
  store <2 x float> %3, ptr %.sroa.3.0..sroa_idx, align 8
  %8 = getelementptr inbounds nuw i8, ptr %7, i64 24
  %9 = load i32, ptr %8, align 8, !tbaa !16
  %.not23 = icmp eq i32 %9, -1
  br i1 %.not23, label %._crit_edge30, label %.lr.ph

.lr.ph:                                           ; preds = %4
  %.sroa.0.0.vec.extract.i = extractelement <2 x float> %2, i64 0
  %.sroa.0.4.vec.extract.i = extractelement <2 x float> %2, i64 1
  %.sroa.5.8.vec.extract.i = extractelement <2 x float> %3, i64 0
  %.sroa.5.12.vec.extract.i = extractelement <2 x float> %3, i64 1
  br label %10

10:                                               ; preds = %.lr.ph, %.backedge
  %.02024 = phi i32 [ %9, %.lr.ph ], [ %.020.be, %.backedge ]
  %11 = sext i32 %.02024 to i64
  %12 = getelementptr inbounds %struct.b2TreeNode, ptr %5, i64 %11
  %13 = load float, ptr %12, align 4, !tbaa !44
  %14 = fcmp olt float %.sroa.0.0.vec.extract.i, %13
  br i1 %14, label %15, label %16

15:                                               ; preds = %10
  store float %.sroa.0.0.vec.extract.i, ptr %12, align 4, !tbaa !44
  br label %16

16:                                               ; preds = %15, %10
  %17 = getelementptr inbounds nuw i8, ptr %12, i64 4
  %18 = load float, ptr %17, align 4, !tbaa !45
  %19 = fcmp olt float %.sroa.0.4.vec.extract.i, %18
  br i1 %19, label %20, label %21

20:                                               ; preds = %16
  store float %.sroa.0.4.vec.extract.i, ptr %17, align 4, !tbaa !45
  br label %21

21:                                               ; preds = %20, %16
  %.1.i = phi i1 [ true, %20 ], [ %14, %16 ]
  %22 = getelementptr inbounds nuw i8, ptr %12, i64 8
  %23 = load float, ptr %22, align 4, !tbaa !46
  %24 = fcmp olt float %23, %.sroa.5.8.vec.extract.i
  br i1 %24, label %.thread, label %25

25:                                               ; preds = %21
  %26 = getelementptr inbounds nuw i8, ptr %12, i64 12
  %27 = load float, ptr %26, align 4, !tbaa !47
  %28 = fcmp olt float %27, %.sroa.5.12.vec.extract.i
  br i1 %28, label %32, label %b2EnlargeAABB.exit

.thread:                                          ; preds = %21
  store float %.sroa.5.8.vec.extract.i, ptr %22, align 4, !tbaa !46
  %29 = getelementptr inbounds nuw i8, ptr %12, i64 12
  %30 = load float, ptr %29, align 4, !tbaa !47
  %31 = fcmp olt float %30, %.sroa.5.12.vec.extract.i
  br i1 %31, label %32, label %.backedge.sink.split

32:                                               ; preds = %.thread, %25
  %33 = phi ptr [ %29, %.thread ], [ %26, %25 ]
  store float %.sroa.5.12.vec.extract.i, ptr %33, align 4, !tbaa !47
  br label %.backedge.sink.split

b2EnlargeAABB.exit:                               ; preds = %25
  %34 = getelementptr inbounds nuw i8, ptr %12, i64 38
  %35 = load i16, ptr %34, align 2, !tbaa !34
  %36 = or i16 %35, 2
  store i16 %36, ptr %34, align 2, !tbaa !34
  %37 = getelementptr inbounds nuw i8, ptr %12, i64 24
  %38 = load i32, ptr %37, align 8, !tbaa !16
  br i1 %.1.i, label %.backedge, label %b2EnlargeAABB.exit._crit_edge

.backedge.sink.split:                             ; preds = %.thread, %32
  %39 = getelementptr inbounds nuw i8, ptr %12, i64 38
  %40 = load i16, ptr %39, align 2, !tbaa !34
  %41 = or i16 %40, 2
  store i16 %41, ptr %39, align 2, !tbaa !34
  %42 = getelementptr inbounds nuw i8, ptr %12, i64 24
  %43 = load i32, ptr %42, align 8, !tbaa !16
  br label %.backedge

.backedge:                                        ; preds = %.backedge.sink.split, %b2EnlargeAABB.exit
  %.020.be = phi i32 [ %38, %b2EnlargeAABB.exit ], [ %43, %.backedge.sink.split ]
  %.not = icmp eq i32 %.020.be, -1
  br i1 %.not, label %._crit_edge30, label %10

b2EnlargeAABB.exit._crit_edge:                    ; preds = %b2EnlargeAABB.exit
  %.not2126 = icmp eq i32 %38, -1
  br i1 %.not2126, label %._crit_edge30, label %.lr.ph29

.lr.ph29:                                         ; preds = %b2EnlargeAABB.exit._crit_edge, %49
  %.227 = phi i32 [ %52, %49 ], [ %38, %b2EnlargeAABB.exit._crit_edge ]
  %44 = sext i32 %.227 to i64
  %45 = getelementptr inbounds %struct.b2TreeNode, ptr %5, i64 %44
  %46 = getelementptr inbounds nuw i8, ptr %45, i64 38
  %47 = load i16, ptr %46, align 2, !tbaa !34
  %48 = and i16 %47, 2
  %.not22 = icmp eq i16 %48, 0
  br i1 %.not22, label %49, label %._crit_edge30

49:                                               ; preds = %.lr.ph29
  %50 = or disjoint i16 %47, 2
  store i16 %50, ptr %46, align 2, !tbaa !34
  %51 = getelementptr inbounds nuw i8, ptr %45, i64 24
  %52 = load i32, ptr %51, align 8, !tbaa !16
  %.not21 = icmp eq i32 %52, -1
  br i1 %.not21, label %._crit_edge30, label %.lr.ph29, !llvm.loop !48

._crit_edge30:                                    ; preds = %.backedge, %49, %.lr.ph29, %4, %b2EnlargeAABB.exit._crit_edge
  ret void
}